target datalayout = "e-m:e-p270:32:32-p271:32:32-p272:64:64-i64:64-i128:128-f80:128-n8:16:32:64-S128"
target triple = "x86_64-pc-linux-gnu"

%"class.Assimp::BatchLoader" = type { ptr }

; Function Attrs: mustprogress uwtable
define void @_ZN6Assimp11BatchLoaderC2EPNS_8IOSystemEb(ptr noundef nonnull align 8 dereferenceable(8) %0, ptr noundef %1, i1 noundef zeroext %2) unnamed_addr #3 align 2 personality ptr @__gxx_personality_v0 {
  %4 = alloca ptr, align 8
  %5 = alloca ptr, align 8
  %6 = alloca i8, align 1
  %7 = alloca ptr, align 8
  %8 = alloca i32, align 4
  store ptr %0, ptr %4, align 8
  store ptr %1, ptr %5, align 8
  %9 = zext i1 %2 to i8
  store i8 %9, ptr %6, align 1
  %10 = load ptr, ptr %4, align 8
  %11 = call noalias noundef nonnull ptr @_Znwm(i64 noundef 80) #20
  %12 = load ptr, ptr %5, align 8
  %13 = load i8, ptr %6, align 1, !range !9, !noundef !10
  %14 = trunc i8 %13 to i1
  invoke void @_ZN6Assimp9BatchDataC2EPNS_8IOSystemEb(ptr noundef nonnull align 8 dereferenceable(77) %11, ptr noundef %12, i1 noundef zeroext %14)
          to label %15 unwind label %17

15:                                               ; preds = %3
  %16 = getelementptr inbounds nuw %"class.Assimp::BatchLoader", ptr %10, i32 0, i32 0
  store ptr %11, ptr %16, align 8
  ret void

17:                                               ; preds = %3
  %18 = landingpad { ptr, i32 }
          cleanup
  %19 = extractvalue { ptr, i32 } %18, 0
  store ptr %19, ptr %7, align 8
  %20 = extractvalue { ptr, i32 } %18, 1
  store i32 %20, ptr %8, align 4
  call void @_ZdlPvm(ptr noundef %11, i64 noundef 80) #21
  br label %21

21:                                               ; preds = %17
  %22 = load ptr, ptr %7, align 8
  %23 = load i32, ptr %8, align 4
  %24 = insertvalue { ptr, i32 } poison, ptr %22, 0
  %25 = insertvalue { ptr, i32 } %24, i32 %23, 1
  resume { ptr, i32 } %25
}