; Function Attrs: mustprogress uwtable
define void @_ZN6Assimp11BatchLoaderC2EPNS_8IOSystemEb(ptr noundef nonnull writeonly align 8 captures(none) dereferenceable(8) %0, ptr noundef %1, i1 noundef zeroext %2) unnamed_addr #2 align 2 personality ptr @__gxx_personality_v0 {
  %4 = tail call noalias noundef nonnull dereferenceable(80) ptr @_Znwm(i64 noundef 80) #29
  invoke void @_ZN6Assimp9BatchDataC2EPNS_8IOSystemEb(ptr noundef nonnull align 8 dereferenceable(77) %4, ptr noundef %1, i1 noundef zeroext %2)
          to label %5 unwind label %6

5:                                                ; preds = %3
  store ptr %4, ptr %0, align 8
  ret void

6:                                                ; preds = %3
  %7 = landingpad { ptr, i32 }
          cleanup
  tail call void @_ZdlPvm(ptr noundef nonnull %4, i64 noundef 80) #28
  resume { ptr, i32 } %7
}